Microchip MPLAB XC8 Compiler V2.05 ()

Linker command line:

-W-3 --edf=C:\Program Files (x86)\Microchip\xc8\v2.05\pic\dat\en_msgs.txt \
  -cs -h+dist/default/production\Clock.X.production.sym \
  --cmf=dist/default/production\Clock.X.production.cmf -z -Q18F4550 \
  -oC:\Users\Daniel\AppData\Local\Temp\sbfg.2 --defsym=__MPLAB_BUILD=1 \
  -Mdist/default/production/Clock.X.production.map -E1 -ver=XC8 \
  --acfsm=1493 -ASTACK=06Fh-07FFh -pstack=STACK -ACODE=00h-07FFFh \
  -ACONST=00h-07FFFh -ASMALLCONST=0800h-08FFhx120 \
  -AMEDIUMCONST=0800h-07FFFh -ACOMRAM=01h-05Fh -AABS1=00h-07FFh \
  -ABIGRAM=01h-07FFh -ARAM=060h-0FFh,0100h-01FFhx7 -ABANK0=060h-0FFh \
  -ABANK1=0100h-01FFh -ABANK2=0200h-02FFh -ABANK3=0300h-03FFh \
  -ABANK4=0400h-04FFh -ABANK5=0500h-05FFh -ABANK6=0600h-06FFh \
  -ABANK7=0700h-07FFh -ASFR=0F60h-0FFFh \
  -preset_vec=00h,intcode=08h,intcodelo,powerup,init -pramtop=0800h \
  -psmallconst=SMALLCONST -pmediumconst=MEDIUMCONST -pconst=CONST \
  -AFARRAM=00h-00h -ACONFIG=0300000h-030000Dh -pconfig=CONFIG \
  -AIDLOC=0200000h-0200007h -pidloc=IDLOC -AEEDATA=0F00000h-0F000FFh \
  -peeprom_data=EEDATA \
  -prdata=COMRAM,nvrram=COMRAM,nvbit=COMRAM,rbss=COMRAM,rbit=COMRAM \
  -pfarbss=FARRAM,fardata=FARRAM,nvFARRAM=FARRAM \
  -pintsave_regs=BIGRAM,bigbss=BIGRAM,bigdata=BIGRAM -pbss=RAM \
  -pidata=CODE,irdata=CODE,ibigdata=CODE,ifardata=CODE -prparam=COMRAM \
  C:\Users\Daniel\AppData\Local\Temp\sbfg.o \
  dist/default/production\Clock.X.production.o 

Object code version is 3.11

Machine type is 18F4550

Call graph: (short form)




                Name                               Link     Load   Length Selector   Space Scale
C:\Users\Daniel\AppData\Local\Temp\sbfg.o
                init                                  E        E        4        4       0
                reset_vec                             0        0        4        0       0
                idloc                            200000   200000        8   200000       0
                config                           300000   300000        E   300000       0
dist/default/production\Clock.X.production.o
                intcode                               8        8        6        4       0
                temp                                 55       55        1        1       1
                text40                              410      410      12A        4       0
                intcode_body                        CD2      CD2       38        4       0
                text38                              EFE      EFE       18        4       0
                text37                              F6A      F6A        6      7A9       0
                text36                              F2A      F2A        E        4       0
                text35                              C9A      C9A       38        4       0
                text34                              A56      A56       52        4       0
                text33                              C20      C20       42        4       0
                text32                              68C      68C       8C        4       0
                text31                              C62      C62       38        4       0
                text30                              BDA      BDA       46        4       0
                text29                              F62      F62        8      7A9       0
                text28                              F5A      F5A        8      7A9       0
                text27                              F16      F16       14        4       0
                text26                              E8E      E8E       20        4       0
                text25                              718      718       84        4       0
                text24                              814      814       70        4       0
                text23                              A04      A04       52        4       0
                text22                              AA8      AA8       4E        4       0
                text21                              B8E      B8E       4C        4       0
                text20                              9B2      9B2       52        4       0
                text19                              B42      B42       4C        4       0
                text18                              AF6      AF6       4C        4       0
                text17                              8EE      8EE       6A        4       0
                text16                               12       12      3FE        4       0
                text15                              884      884       6A        4       0
                text14                              79C      79C       78        4       0
                text13                              D40      D40       34        4       0
                text12                              EAE      EAE       1E        4       0
                text11                              F52      F52        8      7A9       0
                text10                              D0A      D0A       36        4       0
                text9                               DD4      DD4       30        4       0
                text8                               DA4      DA4       30        4       0
                text7                               E60      E60       2E        4       0
                text6                               D74      D74       30        4       0
                text5                               E32      E32       2E        4       0
                text4                               ECC      ECC       1A        4       0
                text3                               E04      E04       2E        4       0
                text2                               5F8      5F8       94        4       0
                text1                               EE6      EE6       18        4       0
                text0                               53A      53A       BE        4       0
                cstackCOMRAM                          1        1       2D        1       1
                cstackBANK0                          6D       6D        2       60       1
                dataBANK0                            60       60        D       60       1
                dataCOMRAM                           49       49        C        1       1
                bssCOMRAM                            2E       2E       1B        1       1
                cinit                               958      958       5A        4       0
                idataBANK0                          F38      F38        D        4       0
                idataCOMRAM                         F45      F45        C        4       0

TOTAL           Name                               Link     Load   Length     Space
        CLASS   STACK          

        CLASS   CODE           
                intcode                               8        8        6         0
                init                                  E        E        4         0
                reset_vec                             0        0        4         0
                text40                              410      410      12A         0
                intcode_body                        CD2      CD2       38         0
                text38                              EFE      EFE       18         0
                text37                              F6A      F6A        6         0
                text36                              F2A      F2A        E         0
                text35                              C9A      C9A       38         0
                text34                              A56      A56       52         0
                text33                              C20      C20       42         0
                text32                              68C      68C       8C         0
                text31                              C62      C62       38         0
                text30                              BDA      BDA       46         0
                text29                              F62      F62        8         0
                text28                              F5A      F5A        8         0
                text27                              F16      F16       14         0
                text26                              E8E      E8E       20         0
                text25                              718      718       84         0
                text24                              814      814       70         0
                text23                              A04      A04       52         0
                text22                              AA8      AA8       4E         0
                text21                              B8E      B8E       4C         0
                text20                              9B2      9B2       52         0
                text19                              B42      B42       4C         0
                text18                              AF6      AF6       4C         0
                text17                              8EE      8EE       6A         0
                text16                               12       12      3FE         0
                text15                              884      884       6A         0
                text14                              79C      79C       78         0
                text13                              D40      D40       34         0
                text12                              EAE      EAE       1E         0
                text11                              F52      F52        8         0
                text10                              D0A      D0A       36         0
                text9                               DD4      DD4       30         0
                text8                               DA4      DA4       30         0
                text7                               E60      E60       2E         0
                text6                               D74      D74       30         0
                text5                               E32      E32       2E         0
                text4                               ECC      ECC       1A         0
                text3                               E04      E04       2E         0
                text2                               5F8      5F8       94         0
                text1                               EE6      EE6       18         0
                text0                               53A      53A       BE         0
                cinit                               958      958       5A         0
                idataBANK0                          F38      F38        D         0
                idataCOMRAM                         F45      F45        C         0

        CLASS   CONST          

        CLASS   SMALLCONST     

        CLASS   MEDIUMCONST    

        CLASS   COMRAM         
                temp                                 55       55        1         1
                cstackCOMRAM                          1        1       2D         1
                dataCOMRAM                           49       49        C         1
                bssCOMRAM                            2E       2E       1B         1

        CLASS   ABS1           

        CLASS   BIGRAM         

        CLASS   RAM            

        CLASS   BANK0          
                cstackBANK0                          6D       6D        2         1
                dataBANK0                            60       60        D         1

        CLASS   BANK1          

        CLASS   BANK2          

        CLASS   BANK3          

        CLASS   BANK4          

        CLASS   BANK5          

        CLASS   BANK6          

        CLASS   BANK7          

        CLASS   SFR            

        CLASS   FARRAM         

        CLASS   CONFIG         
                config                           300000   300000        E         0

        CLASS   IDLOC          
                idloc                            200000   200000        8         0

        CLASS   EEDATA         



SEGMENTS        Name                           Load    Length   Top    Selector   Space  Class

                reset_vec                      000000  000004  000004         0       0  CODE    
                cstackCOMRAM                   000001  000055  000056         1       1  COMRAM  
                intcode                        000008  000F49  000F51         4       0  CODE    
                dataBANK0                      000060  00000F  00006F        60       1  BANK0   
                text11                         000F52  00001E  000F70       7A9       0  CODE    
                idloc                          200000  000008  200008    200000       0  IDLOC   
                config                         300000  00000E  30000E    300000       0  CONFIG  


UNUSED ADDRESS RANGES

        Name                Unused          Largest block    Delta
        BANK0            00006F-0000FF               91
        BANK1            000100-0001FF              100
        BANK2            000200-0002FF              100
        BANK3            000300-0003FF              100
        BANK4            000400-0004FF              100
        BANK5            000500-0005FF              100
        BANK6            000600-0006FF              100
        BANK7            000700-0007FF              100
        BIGRAM           000056-00005F                A
                         00006F-0007FF              791
        CODE             000004-000007                4
                         000F51-000F51                1
                         000F70-007FFF             7090
        COMRAM           000056-00005F                A
        CONST            000004-000007                4
                         000F51-000F51                1
                         000F70-007FFF             7090
        EEDATA           F00000-F000FF              100
        MEDIUMCONST      000F51-000F51                1
                         000F70-007FFF             7090
        RAM              00006F-0007FF              100
        SFR              000F60-000FFF               A0
        SMALLCONST       000F51-000F51                1
                         000F70-007FFF              100
        STACK            00006F-0007FF              791

                                  Symbol Table

?___awdiv                   cstackCOMRAM 00000B
?___awmod                   cstackCOMRAM 00000B
?___lwdiv                   cstackCOMRAM 00000B
?___lwmod                   cstackCOMRAM 00000B
DateRead@BCD_Data           cstackCOMRAM 000017
DateRead@Dec_Data           cstackCOMRAM 000016
Display_ISR@BrightCnt       bssCOMRAM    000034
Display_ISR@digit           bssCOMRAM    000035
GetRisingEdge_SW1@flag      bssCOMRAM    000036
GetRisingEdge_SW2@flag      bssCOMRAM    000037
HourRead@BCD_Data           cstackCOMRAM 000017
HourRead@Dec_Data           cstackCOMRAM 000016
I2C_Mem_Read@MemAddress     cstackCOMRAM 000011
I2C_Mem_Read@addr           cstackCOMRAM 000014
I2C_Mem_Read@data           cstackCOMRAM 000012
I2C_Mem_Transmit@MemAddress cstackCOMRAM 000010
I2C_Mem_Transmit@addr       cstackCOMRAM 000012
I2C_Mem_Transmit@data       cstackCOMRAM 000011
I2C_Read@GenerateAck        cstackCOMRAM 00000F
I2C_Read@data               cstackCOMRAM 000010
I2C_Write@data              cstackCOMRAM 00000F
I2C_is_idle@TimeOut         cstackCOMRAM 00000D
MinRead@BCD_Data            cstackCOMRAM 000017
MinRead@Dec_Data            cstackCOMRAM 000016
MonthRead@BCD_Data          cstackCOMRAM 000017
MonthRead@Dec_Data          cstackCOMRAM 000016
SecRead@BCD_Data            cstackCOMRAM 000017
SecRead@Dec_Data            cstackCOMRAM 000016
SetDate@BCD_Data            cstackCOMRAM 000015
SetDate@data                cstackCOMRAM 000016
SetHour@BCD_Data            cstackCOMRAM 000015
SetHour@data                cstackCOMRAM 000016
SetMin@BCD_Data             cstackCOMRAM 000015
SetMin@data                 cstackCOMRAM 000016
SetMonth@BCD_Data           cstackCOMRAM 000015
SetMonth@data               cstackCOMRAM 000016
SetRTC@BlinkTime            bssCOMRAM    000032
SetRTC@cnt                  cstackCOMRAM 00002D
SetRTC@flag                 bssCOMRAM    000039
SetSec@BCD_Data             cstackCOMRAM 000015
SetSec@data                 cstackCOMRAM 000016
SetYear@BCD_Data            cstackCOMRAM 000015
SetYear@data                cstackCOMRAM 000016
ShowTime@old_sec            bssCOMRAM    000038
TimeRead@time               cstackCOMRAM 000018
TimeSet@time                cstackCOMRAM 000017
WeekRead@data               cstackCOMRAM 000015
YearRead@BCD_Data           cstackCOMRAM 000017
YearRead@Dec_Data           cstackCOMRAM 000016
_ADCON1                     (abs)        000FC1
_Brightness                 dataCOMRAM   000049
_DS3231_Init                text37       000F6A
_DateRead                   text9        000DD4
_Display_ISR                text40       000410
_Display_ISR$482            cstackCOMRAM 000005
_GetRisingEdge_SW1          text35       000C9A
_GetRisingEdge_SW2          text31       000C62
_HourRead                   text8        000DA4
_I2C_Init                   text38       000EFE
_I2C_Mem_Read               text10       000D0A
_I2C_Mem_Transmit           text26       000E8E
_I2C_Read                   text12       000EAE
_I2C_RepStart               text11       000F52
_I2C_Start                  text29       000F62
_I2C_Stop                   text28       000F5A
_I2C_Write                  text27       000F16
_I2C_is_idle                text30       000BDA
_INTCON2bits                (abs)        000FF1
_INTCONbits                 (abs)        000FF2
_ISR                        intcode      000008
_Interrupt_Init             text36       000F2A
_LATBbits                   (abs)        000F8A
_LATD                       (abs)        000F8C
_MinRead                    text7        000E60
_Mode                       bssCOMRAM    00003A
_MonthRead                  text6        000D74
_NumBuf                     dataCOMRAM   000051
_NumOut_Table               dataBANK0    000060
_PORTEbits                  (abs)        000F84
_PointBuf                   bssCOMRAM    00002E
_RCONbits                   (abs)        000FD0
_RTC                        bssCOMRAM    000042
_SSPADD                     (abs)        000FC8
_SSPBUF                     (abs)        000FC9
_SSPCON1bits                (abs)        000FC6
_SSPCON2                    (abs)        000FC5
_SSPCON2bits                (abs)        000FC5
_SSPSTAT                    (abs)        000FC7
_SSPSTATbits                (abs)        000FC7
_SecRead                    text5        000E32
_Set                        bssCOMRAM    00003B
_SetBrightness              text32       00068C
_SetDate                    text23       000A04
_SetHour                    text22       000AA8
_SetMin                     text21       000B8E
_SetMonth                   text20       0009B2
_SetRTC                     text16       000012
_SetRTC$454                 cstackCOMRAM 00001B
_SetRTC$455                 cstackCOMRAM 00001D
_SetRTC$456                 cstackCOMRAM 00001F
_SetRTC$457                 cstackCOMRAM 000021
_SetRTC$458                 cstackCOMRAM 000023
_SetRTC$459                 cstackCOMRAM 000025
_SetRTC$460                 cstackCOMRAM 000027
_SetRTC$461                 cstackCOMRAM 000029
_SetRTC$462                 cstackCOMRAM 00002B
_SetSec                     text19       000B42
_SetYear                    text18       000AF6
_ShowDate                   text15       000884
_ShowTime                   text14       00079C
_ShowWeek                   text13       000D40
_T0CONbits                  (abs)        000FD5
_TMR0                       (abs)        000FD6
_TRISB                      (abs)        000F93
_TRISBbits                  (abs)        000F93
_TRISC                      (abs)        000F94
_TRISD                      (abs)        000F95
_TRISE                      (abs)        000F96
_TimeRead                   text2        0005F8
_TimeSet                    text17       0008EE
_Timer0_Init                text1        000EE6
_WeekRead                   text4        000ECC
_YearRead                   text3        000E04
__CFG_BOR$OFF               (abs)        000000
__CFG_BORV$3                (abs)        000000
__CFG_CCP2MX$ON             (abs)        000000
__CFG_CP0$OFF               (abs)        000000
__CFG_CP1$OFF               (abs)        000000
__CFG_CP2$OFF               (abs)        000000
__CFG_CP3$OFF               (abs)        000000
__CFG_CPB$OFF               (abs)        000000
__CFG_CPD$OFF               (abs)        000000
__CFG_CPUDIV$OSC1_PLL2      (abs)        000000
__CFG_EBTR0$OFF             (abs)        000000
__CFG_EBTR1$OFF             (abs)        000000
__CFG_EBTR2$OFF             (abs)        000000
__CFG_EBTR3$OFF             (abs)        000000
__CFG_EBTRB$OFF             (abs)        000000
__CFG_FCMEN$OFF             (abs)        000000
__CFG_FOSC$HSPLL_HS         (abs)        000000
__CFG_ICPRT$OFF             (abs)        000000
__CFG_IESO$OFF              (abs)        000000
__CFG_LPT1OSC$OFF           (abs)        000000
__CFG_LVP$OFF               (abs)        000000
__CFG_MCLRE$ON              (abs)        000000
__CFG_PBADEN$ON             (abs)        000000
__CFG_PLLDIV$4              (abs)        000000
__CFG_PWRT$OFF              (abs)        000000
__CFG_STVREN$OFF            (abs)        000000
__CFG_USBDIV$2              (abs)        000000
__CFG_VREGEN$OFF            (abs)        000000
__CFG_WDT$OFF               (abs)        000000
__CFG_WDTPS$32768           (abs)        000000
__CFG_WRT0$OFF              (abs)        000000
__CFG_WRT1$OFF              (abs)        000000
__CFG_WRT2$OFF              (abs)        000000
__CFG_WRT3$OFF              (abs)        000000
__CFG_WRTB$OFF              (abs)        000000
__CFG_WRTC$OFF              (abs)        000000
__CFG_WRTD$OFF              (abs)        000000
__CFG_XINST$OFF             (abs)        000000
__HRAM                      (abs)        000000
__Habs1                     abs1         000000
__Hbank0                    bank0        000000
__Hbank1                    bank1        000000
__Hbank2                    bank2        000000
__Hbank3                    bank3        000000
__Hbank4                    bank4        000000
__Hbank5                    bank5        000000
__Hbank6                    bank6        000000
__Hbank7                    bank7        000000
__Hbigbss                   bigbss       000000
__Hbigdata                  bigdata      000000
__Hbigram                   bigram       000000
__Hbss                      bss          000000
__HbssCOMRAM                bssCOMRAM    000000
__Hcinit                    cinit        000000
__Hclrtext                  clrtext      000000
__Hcomram                   comram       000000
__Hconfig                   config       30000E
__Hconst                    const        000000
__HcstackBANK0              cstackBANK0  000000
__HcstackCOMRAM             cstackCOMRAM 000000
__Hdata                     data         000000
__HdataBANK0                dataBANK0    000000
__HdataCOMRAM               dataCOMRAM   000000
__Heeprom_data              eeprom_data  000000
__Hfarbss                   farbss       000000
__Hfardata                  fardata      000000
__Hibigdata                 ibigdata     000000
__Hidata                    idata        000000
__HidataBANK0               idataBANK0   000000
__HidataCOMRAM              idataCOMRAM  000000
__Hidloc                    idloc        200008
__Hifardata                 ifardata     000000
__Hinit                     init         000012
__Hintcode                  intcode      00000E
__Hintcode_body             intcode_body 000000
__Hintcodelo                intcodelo    00000E
__Hintentry                 intentry     000000
__Hintret                   intret       000000
__Hintsave_regs             intsave_regs 000000
__Hirdata                   irdata       000000
__Hmediumconst              mediumconst  000000
__HnvFARRAM                 nvFARRAM     000000
__Hnvbit                    nvbit        000000
__Hnvrram                   nvrram       000000
__Hparam                    rparam       000000
__Hpowerup                  powerup      00000E
__Hram                      ram          000000
__Hramtop                   ramtop       000800
__Hrbit                     rbit         000000
__Hrbss                     rbss         000000
__Hrdata                    rdata        000000
__Hreset_vec                reset_vec    000004
__Hrparam                   rparam       000000
__Hsfr                      sfr          000000
__Hsmallconst               smallconst   000000
__Hspace_0                  (abs)        30000E
__Hspace_1                  (abs)        00006F
__Hspace_2                  (abs)        000000
__Hstack                    stack        000000
__Hstruct                   struct       000000
__Htemp                     temp         000056
__Htext                     text         000000
__Htext0                    text0        000000
__Htext1                    text1        000000
__Htext10                   text10       000000
__Htext11                   text11       000000
__Htext12                   text12       000000
__Htext13                   text13       000000
__Htext14                   text14       000000
__Htext15                   text15       000000
__Htext16                   text16       000000
__Htext17                   text17       000000
__Htext18                   text18       000000
__Htext19                   text19       000000
__Htext2                    text2        000000
__Htext20                   text20       000000
__Htext21                   text21       000000
__Htext22                   text22       000000
__Htext23                   text23       000000
__Htext24                   text24       000000
__Htext25                   text25       000000
__Htext26                   text26       000000
__Htext27                   text27       000000
__Htext28                   text28       000000
__Htext29                   text29       000000
__Htext3                    text3        000000
__Htext30                   text30       000000
__Htext31                   text31       000000
__Htext32                   text32       000000
__Htext33                   text33       000000
__Htext34                   text34       000000
__Htext35                   text35       000000
__Htext36                   text36       000000
__Htext37                   text37       000000
__Htext38                   text38       000000
__Htext4                    text4        000000
__Htext40                   text40       000000
__Htext5                    text5        000000
__Htext6                    text6        000000
__Htext7                    text7        000000
__Htext8                    text8        000000
__Htext9                    text9        000000
__LRAM                      (abs)        000001
__Labs1                     abs1         000000
__Lbank0                    bank0        000000
__Lbank1                    bank1        000000
__Lbank2                    bank2        000000
__Lbank3                    bank3        000000
__Lbank4                    bank4        000000
__Lbank5                    bank5        000000
__Lbank6                    bank6        000000
__Lbank7                    bank7        000000
__Lbigbss                   bigbss       000000
__Lbigdata                  bigdata      000000
__Lbigram                   bigram       000000
__Lbss                      bss          000000
__LbssCOMRAM                bssCOMRAM    000000
__Lcinit                    cinit        000000
__Lclrtext                  clrtext      000000
__Lcomram                   comram       000000
__Lconfig                   config       300000
__Lconst                    const        000000
__LcstackBANK0              cstackBANK0  000000
__LcstackCOMRAM             cstackCOMRAM 000000
__Ldata                     data         000000
__LdataBANK0                dataBANK0    000000
__LdataCOMRAM               dataCOMRAM   000000
__Leeprom_data              eeprom_data  000000
__Lfarbss                   farbss       000000
__Lfardata                  fardata      000000
__Libigdata                 ibigdata     000000
__Lidata                    idata        000000
__LidataBANK0               idataBANK0   000000
__LidataCOMRAM              idataCOMRAM  000000
__Lidloc                    idloc        200000
__Lifardata                 ifardata     000000
__Linit                     init         00000E
__Lintcode                  intcode      000008
__Lintcode_body             intcode_body 000000
__Lintcodelo                intcodelo    00000E
__Lintentry                 intentry     000000
__Lintret                   intret       000000
__Lintsave_regs             intsave_regs 000000
__Lirdata                   irdata       000000
__Lmediumconst              mediumconst  000000
__LnvFARRAM                 nvFARRAM     000000
__Lnvbit                    nvbit        000000
__Lnvrram                   nvrram       000000
__Lparam                    rparam       000000
__Lpowerup                  powerup      00000E
__Lram                      ram          000000
__Lramtop                   ramtop       000800
__Lrbit                     rbit         000000
__Lrbss                     rbss         000000
__Lrdata                    rdata        000000
__Lreset_vec                reset_vec    000000
__Lrparam                   rparam       000000
__Lsfr                      sfr          000000
__Lsmallconst               smallconst   000000
__Lspace_0                  (abs)        000000
__Lspace_1                  (abs)        000000
__Lspace_2                  (abs)        000000
__Lstack                    stack        000000
__Lstruct                   struct       000000
__Ltemp                     temp         000055
__Ltext                     text         000000
__Ltext0                    text0        000000
__Ltext1                    text1        000000
__Ltext10                   text10       000000
__Ltext11                   text11       000000
__Ltext12                   text12       000000
__Ltext13                   text13       000000
__Ltext14                   text14       000000
__Ltext15                   text15       000000
__Ltext16                   text16       000000
__Ltext17                   text17       000000
__Ltext18                   text18       000000
__Ltext19                   text19       000000
__Ltext2                    text2        000000
__Ltext20                   text20       000000
__Ltext21                   text21       000000
__Ltext22                   text22       000000
__Ltext23                   text23       000000
__Ltext24                   text24       000000
__Ltext25                   text25       000000
__Ltext26                   text26       000000
__Ltext27                   text27       000000
__Ltext28                   text28       000000
__Ltext29                   text29       000000
__Ltext3                    text3        000000
__Ltext30                   text30       000000
__Ltext31                   text31       000000
__Ltext32                   text32       000000
__Ltext33                   text33       000000
__Ltext34                   text34       000000
__Ltext35                   text35       000000
__Ltext36                   text36       000000
__Ltext37                   text37       000000
__Ltext38                   text38       000000
__Ltext4                    text4        000000
__Ltext40                   text40       000000
__Ltext5                    text5        000000
__Ltext6                    text6        000000
__Ltext7                    text7        000000
__Ltext8                    text8        000000
__Ltext9                    text9        000000
__S0                        (abs)        30000E
__S1                        (abs)        00006F
__S2                        (abs)        000000
___awdiv                    text25       000718
___awdiv@counter            cstackCOMRAM 00000F
___awdiv@dividend           cstackCOMRAM 00000B
___awdiv@divisor            cstackCOMRAM 00000D
___awdiv@quotient           cstackCOMRAM 000011
___awdiv@sign               cstackCOMRAM 000010
___awmod                    text24       000814
___awmod@counter            cstackCOMRAM 00000F
___awmod@dividend           cstackCOMRAM 00000B
___awmod@divisor            cstackCOMRAM 00000D
___awmod@sign               cstackCOMRAM 000010
___inthi_sp                 stack        000000
___intlo_sp                 stack        000000
___lwdiv                    text34       000A56
___lwdiv@counter            cstackCOMRAM 000011
___lwdiv@dividend           cstackCOMRAM 00000B
___lwdiv@divisor            cstackCOMRAM 00000D
___lwdiv@quotient           cstackCOMRAM 00000F
___lwmod                    text33       000C20
___lwmod@counter            cstackCOMRAM 00000F
___lwmod@dividend           cstackCOMRAM 00000B
___lwmod@divisor            cstackCOMRAM 00000D
___param_bank               (abs)        000000
___rparam_used              (abs)        000001
___sp                       stack        000000
__accesstop                 (abs)        000060
__activetblptr              (abs)        000002
__end_of_DS3231_Init        text37       000F70
__end_of_DateRead           text9        000E04
__end_of_Display_ISR        text40       00053A
__end_of_GetRisingEdge_SW1  text35       000CD2
__end_of_GetRisingEdge_SW2  text31       000C9A
__end_of_HourRead           text8        000DD4
__end_of_I2C_Init           text38       000F16
__end_of_I2C_Mem_Read       text10       000D40
__end_of_I2C_Mem_Transmit   text26       000EAE
__end_of_I2C_Read           text12       000ECC
__end_of_I2C_RepStart       text11       000F5A
__end_of_I2C_Start          text29       000F6A
__end_of_I2C_Stop           text28       000F62
__end_of_I2C_Write          text27       000F2A
__end_of_I2C_is_idle        text30       000C20
__end_of_ISR                intcode_body 000D0A
__end_of_Interrupt_Init     text36       000F38
__end_of_MinRead            text7        000E8E
__end_of_MonthRead          text6        000DA4
__end_of_SecRead            text5        000E60
__end_of_SetBrightness      text32       000718
__end_of_SetDate            text23       000A56
__end_of_SetHour            text22       000AF6
__end_of_SetMin             text21       000BDA
__end_of_SetMonth           text20       000A04
__end_of_SetRTC             text16       000410
__end_of_SetSec             text19       000B8E
__end_of_SetYear            text18       000B42
__end_of_ShowDate           text15       0008EE
__end_of_ShowTime           text14       000814
__end_of_ShowWeek           text13       000D74
__end_of_TimeRead           text2        00068C
__end_of_TimeSet            text17       000958
__end_of_Timer0_Init        text1        000EFE
__end_of_WeekRead           text4        000EE6
__end_of_YearRead           text3        000E32
__end_of___awdiv            text25       00079C
__end_of___awmod            text24       000884
__end_of___lwdiv            text34       000AA8
__end_of___lwmod            text33       000C62
__end_of__initialization    cinit        0009A4
__end_of_main               text0        0005F8
__initialization            cinit        000958
__mediumconst               mediumconst  000000
__pbssCOMRAM                bssCOMRAM    00002E
__pcinit                    cinit        000958
__pcstackBANK0              cstackBANK0  00006D
__pcstackCOMRAM             cstackCOMRAM 000001
__pdataBANK0                dataBANK0    000060
__pdataCOMRAM               dataCOMRAM   000049
__pidataBANK0               idataBANK0   000F38
__pidataCOMRAM              idataCOMRAM  000F45
__pintcode                  intcode      000008
__pintcode_body             intcode_body 000CD2
__ptext0                    text0        00053A
__ptext1                    text1        000EE6
__ptext10                   text10       000D0A
__ptext11                   text11       000F52
__ptext12                   text12       000EAE
__ptext13                   text13       000D40
__ptext14                   text14       00079C
__ptext15                   text15       000884
__ptext16                   text16       000012
__ptext17                   text17       0008EE
__ptext18                   text18       000AF6
__ptext19                   text19       000B42
__ptext2                    text2        0005F8
__ptext20                   text20       0009B2
__ptext21                   text21       000B8E
__ptext22                   text22       000AA8
__ptext23                   text23       000A04
__ptext24                   text24       000814
__ptext25                   text25       000718
__ptext26                   text26       000E8E
__ptext27                   text27       000F16
__ptext28                   text28       000F5A
__ptext29                   text29       000F62
__ptext3                    text3        000E04
__ptext30                   text30       000BDA
__ptext31                   text31       000C62
__ptext32                   text32       00068C
__ptext33                   text33       000C20
__ptext34                   text34       000A56
__ptext35                   text35       000C9A
__ptext36                   text36       000F2A
__ptext37                   text37       000F6A
__ptext38                   text38       000EFE
__ptext4                    text4        000ECC
__ptext40                   text40       000410
__ptext5                    text5        000E32
__ptext6                    text6        000D74
__ptext7                    text7        000E60
__ptext8                    text8        000DA4
__ptext9                    text9        000DD4
__ramtop                    ramtop       000800
__size_of_DS3231_Init       (abs)        000000
__size_of_DateRead          (abs)        000000
__size_of_Display_ISR       (abs)        000000
__size_of_GetRisingEdge_SW1 (abs)        000000
__size_of_GetRisingEdge_SW2 (abs)        000000
__size_of_HourRead          (abs)        000000
__size_of_I2C_Init          (abs)        000000
__size_of_I2C_Mem_Read      (abs)        000000
__size_of_I2C_Mem_Transmit  (abs)        000000
__size_of_I2C_Read          (abs)        000000
__size_of_I2C_RepStart      (abs)        000000
__size_of_I2C_Start         (abs)        000000
__size_of_I2C_Stop          (abs)        000000
__size_of_I2C_Write         (abs)        000000
__size_of_I2C_is_idle       (abs)        000000
__size_of_ISR               (abs)        000000
__size_of_Interrupt_Init    (abs)        000000
__size_of_MinRead           (abs)        000000
__size_of_MonthRead         (abs)        000000
__size_of_SecRead           (abs)        000000
__size_of_SetBrightness     (abs)        000000
__size_of_SetDate           (abs)        000000
__size_of_SetHour           (abs)        000000
__size_of_SetMin            (abs)        000000
__size_of_SetMonth          (abs)        000000
__size_of_SetRTC            (abs)        000000
__size_of_SetSec            (abs)        000000
__size_of_SetYear           (abs)        000000
__size_of_ShowDate          (abs)        000000
__size_of_ShowTime          (abs)        000000
__size_of_ShowWeek          (abs)        000000
__size_of_TimeRead          (abs)        000000
__size_of_TimeSet           (abs)        000000
__size_of_Timer0_Init       (abs)        000000
__size_of_WeekRead          (abs)        000000
__size_of_YearRead          (abs)        000000
__size_of___awdiv           (abs)        000000
__size_of___awmod           (abs)        000000
__size_of___lwdiv           (abs)        000000
__size_of___lwmod           (abs)        000000
__size_of_main              (abs)        000000
__smallconst                smallconst   000000
_main                       text0        00053A
btemp                       temp         000055
end_of_initialization       cinit        0009A4
int$flags                   temp         000055
int_func                    intcode_body 000CD2
intlevel0                   text         000000
intlevel1                   text         000000
intlevel2                   text         000000
intlevel3                   text         000000
stackhi                     (abs)        0007FF
stacklo                     (abs)        00006F
start                       init         00000E
start_initialization        cinit        000958
ttemp5                      temp         000056
ttemp6                      temp         000059
ttemp7                      temp         00005D
wtemp8                      temp         000056


FUNCTION INFORMATION:

 *************** function _main *****************
 Defined at:
		line 38 in file "main.c"
 Parameters:    Size  Location     Type
		None
 Auto vars:     Size  Location     Type
		None
 Return value:  Size  Location     Type
                  1    wreg      void 
 Registers used:
		wreg, fsr1l, fsr1h, fsr2l, fsr2h, status,2, status,0, prodl, prodh, cstack
 Tracked objects:
		On entry : 
		On exit  : 
		Unchanged: 
 Data sizes:     COMRAM   BANK0   BANK1   BANK2   BANK3   BANK4   BANK5   BANK6   BANK7
      Params:         0       0       0       0       0       0       0       0       0
      Locals:         0       0       0       0       0       0       0       0       0
      Temps:          0       2       0       0       0       0       0       0       0
      Totals:         0       2       0       0       0       0       0       0       0
Total ram usage:        2 bytes
 Hardware stack levels required when called:    8
 This function calls:
		_DS3231_Init
		_GetRisingEdge_SW1
		_GetRisingEdge_SW2
		_Interrupt_Init
		_SetBrightness
		_SetRTC
		_ShowDate
		_ShowTime
		_ShowWeek
		_TimeRead
		_Timer0_Init
 This function is called by:
		Startup code after reset
 This function uses a non-reentrant model


 *************** function _Timer0_Init *****************
 Defined at:
		line 304 in file "main.c"
 Parameters:    Size  Location     Type
		None
 Auto vars:     Size  Location     Type
		None
 Return value:  Size  Location     Type
                  1    wreg      void 
 Registers used:
		wreg, status,2
 Tracked objects:
		On entry : 
		On exit  : 
		Unchanged: 
 Data sizes:     COMRAM   BANK0   BANK1   BANK2   BANK3   BANK4   BANK5   BANK6   BANK7
      Params:         0       0       0       0       0       0       0       0       0
      Locals:         0       0       0       0       0       0       0       0       0
      Temps:          0       0       0       0       0       0       0       0       0
      Totals:         0       0       0       0       0       0       0       0       0
Total ram usage:        0 bytes
 Hardware stack levels used:    1
 Hardware stack levels required when called:    2
 This function calls:
		Nothing
 This function is called by:
		_main
 This function uses a non-reentrant model


 *************** function _TimeRead *****************
 Defined at:
		line 121 in file "DS3231.c"
 Parameters:    Size  Location     Type
  time            2   23[COMRAM] PTR struct Time
		 -> RTC(7), 
 Auto vars:     Size  Location     Type
		None
 Return value:  Size  Location     Type
                  1    wreg      void 
 Registers used:
		wreg, fsr2l, fsr2h, status,2, status,0, prodl, prodh, cstack
 Tracked objects:
		On entry : 
		On exit  : 
		Unchanged: 
 Data sizes:     COMRAM   BANK0   BANK1   BANK2   BANK3   BANK4   BANK5   BANK6   BANK7
      Params:         2       0       0       0       0       0       0       0       0
      Locals:         0       0       0       0       0       0       0       0       0
      Temps:          1       0       0       0       0       0       0       0       0
      Totals:         3       0       0       0       0       0       0       0       0
Total ram usage:        3 bytes
 Hardware stack levels used:    1
 Hardware stack levels required when called:    6
 This function calls:
		_DateRead
		_HourRead
		_MinRead
		_MonthRead
		_SecRead
		_WeekRead
		_YearRead
 This function is called by:
		_main
 This function uses a non-reentrant model


 *************** function _YearRead *****************
 Defined at:
		line 107 in file "DS3231.c"
 Parameters:    Size  Location     Type
		None
 Auto vars:     Size  Location     Type
  BCD_Data        1   22[COMRAM] unsigned char 
  Dec_Data        1   21[COMRAM] unsigned char 
 Return value:  Size  Location     Type
                  1    wreg      unsigned char 
 Registers used:
		wreg, fsr2l, fsr2h, status,2, status,0, prodl, prodh, cstack
 Tracked objects:
		On entry : 
		On exit  : 
		Unchanged: 
 Data sizes:     COMRAM   BANK0   BANK1   BANK2   BANK3   BANK4   BANK5   BANK6   BANK7
      Params:         0       0       0       0       0       0       0       0       0
      Locals:         2       0       0       0       0       0       0       0       0
      Temps:          1       0       0       0       0       0       0       0       0
      Totals:         3       0       0       0       0       0       0       0       0
Total ram usage:        3 bytes
 Hardware stack levels used:    1
 Hardware stack levels required when called:    5
 This function calls:
		_I2C_Mem_Read
 This function is called by:
		_TimeRead
 This function uses a non-reentrant model


 *************** function _WeekRead *****************
 Defined at:
		line 87 in file "DS3231.c"
 Parameters:    Size  Location     Type
		None
 Auto vars:     Size  Location     Type
  data            1   20[COMRAM] unsigned char 
 Return value:  Size  Location     Type
                  1    wreg      unsigned char 
 Registers used:
		wreg, fsr2l, fsr2h, status,2, status,0, cstack
 Tracked objects:
		On entry : 
		On exit  : 
		Unchanged: 
 Data sizes:     COMRAM   BANK0   BANK1   BANK2   BANK3   BANK4   BANK5   BANK6   BANK7
      Params:         0       0       0       0       0       0       0       0       0
      Locals:         1       0       0       0       0       0       0       0       0
      Temps:          0       0       0       0       0       0       0       0       0
      Totals:         1       0       0       0       0       0       0       0       0
Total ram usage:        1 bytes
 Hardware stack levels used:    1
 Hardware stack levels required when called:    5
 This function calls:
		_I2C_Mem_Read
 This function is called by:
		_TimeRead
 This function uses a non-reentrant model


 *************** function _SecRead *****************
 Defined at:
		line 66 in file "DS3231.c"
 Parameters:    Size  Location     Type
		None
 Auto vars:     Size  Location     Type
  BCD_Data        1   22[COMRAM] unsigned char 
  Dec_Data        1   21[COMRAM] unsigned char 
 Return value:  Size  Location     Type
                  1    wreg      unsigned char 
 Registers used:
		wreg, fsr2l, fsr2h, status,2, status,0, prodl, prodh, cstack
 Tracked objects:
		On entry : 
		On exit  : 
		Unchanged: 
 Data sizes:     COMRAM   BANK0   BANK1   BANK2   BANK3   BANK4   BANK5   BANK6   BANK7
      Params:         0       0       0       0       0       0       0       0       0
      Locals:         2       0       0       0       0       0       0       0       0
      Temps:          1       0       0       0       0       0       0       0       0
      Totals:         3       0       0       0       0       0       0       0       0
Total ram usage:        3 bytes
 Hardware stack levels used:    1
 Hardware stack levels required when called:    5
 This function calls:
		_I2C_Mem_Read
 This function is called by:
		_TimeRead
 This function uses a non-reentrant model


 *************** function _MonthRead *****************
 Defined at:
		line 100 in file "DS3231.c"
 Parameters:    Size  Location     Type
		None
 Auto vars:     Size  Location     Type
  BCD_Data        1   22[COMRAM] unsigned char 
  Dec_Data        1   21[COMRAM] unsigned char 
 Return value:  Size  Location     Type
                  1    wreg      unsigned char 
 Registers used:
		wreg, fsr2l, fsr2h, status,2, status,0, prodl, prodh, cstack
 Tracked objects:
		On entry : 
		On exit  : 
		Unchanged: 
 Data sizes:     COMRAM   BANK0   BANK1   BANK2   BANK3   BANK4   BANK5   BANK6   BANK7
      Params:         0       0       0       0       0       0       0       0       0
      Locals:         2       0       0       0       0       0       0       0       0
      Temps:          1       0       0       0       0       0       0       0       0
      Totals:         3       0       0       0       0       0       0       0       0
Total ram usage:        3 bytes
 Hardware stack levels used:    1
 Hardware stack levels required when called:    5
 This function calls:
		_I2C_Mem_Read
 This function is called by:
		_TimeRead
 This function uses a non-reentrant model


 *************** function _MinRead *****************
 Defined at:
		line 73 in file "DS3231.c"
 Parameters:    Size  Location     Type
		None
 Auto vars:     Size  Location     Type
  BCD_Data        1   22[COMRAM] unsigned char 
  Dec_Data        1   21[COMRAM] unsigned char 
 Return value:  Size  Location     Type
                  1    wreg      unsigned char 
 Registers used:
		wreg, fsr2l, fsr2h, status,2, status,0, prodl, prodh, cstack
 Tracked objects:
		On entry : 
		On exit  : 
		Unchanged: 
 Data sizes:     COMRAM   BANK0   BANK1   BANK2   BANK3   BANK4   BANK5   BANK6   BANK7
      Params:         0       0       0       0       0       0       0       0       0
      Locals:         2       0       0       0       0       0       0       0       0
      Temps:          1       0       0       0       0       0       0       0       0
      Totals:         3       0       0       0       0       0       0       0       0
Total ram usage:        3 bytes
 Hardware stack levels used:    1
 Hardware stack levels required when called:    5
 This function calls:
		_I2C_Mem_Read
 This function is called by:
		_TimeRead
 This function uses a non-reentrant model


 *************** function _HourRead *****************
 Defined at:
		line 80 in file "DS3231.c"
 Parameters:    Size  Location     Type
		None
 Auto vars:     Size  Location     Type
  BCD_Data        1   22[COMRAM] unsigned char 
  Dec_Data        1   21[COMRAM] unsigned char 
 Return value:  Size  Location     Type
                  1    wreg      unsigned char 
 Registers used:
		wreg, fsr2l, fsr2h, status,2, status,0, prodl, prodh, cstack
 Tracked objects:
		On entry : 
		On exit  : 
		Unchanged: 
 Data sizes:     COMRAM   BANK0   BANK1   BANK2   BANK3   BANK4   BANK5   BANK6   BANK7
      Params:         0       0       0       0       0       0       0       0       0
      Locals:         2       0       0       0       0       0       0       0       0
      Temps:          1       0       0       0       0       0       0       0       0
      Totals:         3       0       0       0       0       0       0       0       0
Total ram usage:        3 bytes
 Hardware stack levels used:    1
 Hardware stack levels required when called:    5
 This function calls:
		_I2C_Mem_Read
 This function is called by:
		_TimeRead
 This function uses a non-reentrant model


 *************** function _DateRead *****************
 Defined at:
		line 93 in file "DS3231.c"
 Parameters:    Size  Location     Type
		None
 Auto vars:     Size  Location     Type
  BCD_Data        1   22[COMRAM] unsigned char 
  Dec_Data        1   21[COMRAM] unsigned char 
 Return value:  Size  Location     Type
                  1    wreg      unsigned char 
 Registers used:
		wreg, fsr2l, fsr2h, status,2, status,0, prodl, prodh, cstack
 Tracked objects:
		On entry : 
		On exit  : 
		Unchanged: 
 Data sizes:     COMRAM   BANK0   BANK1   BANK2   BANK3   BANK4   BANK5   BANK6   BANK7
      Params:         0       0       0       0       0       0       0       0       0
      Locals:         2       0       0       0       0       0       0       0       0
      Temps:          1       0       0       0       0       0       0       0       0
      Totals:         3       0       0       0       0       0       0       0       0
Total ram usage:        3 bytes
 Hardware stack levels used:    1
 Hardware stack levels required when called:    5
 This function calls:
		_I2C_Mem_Read
 This function is called by:
		_TimeRead
 This function uses a non-reentrant model


 *************** function _I2C_Mem_Read *****************
 Defined at:
		line 63 in file "I2C.c"
 Parameters:    Size  Location     Type
  addr            1    wreg     unsigned char 
  MemAddress      1   16[COMRAM] unsigned char 
  data            2   17[COMRAM] PTR unsigned char 
		 -> TemperureRead@DATA_H(1), TemperureRead@DATA_L(1), YearRead@BCD_Data(1), MonthRead@BCD_Data(1), 
		 -> DateRead@BCD_Data(1), WeekRead@data(1), HourRead@BCD_Data(1), MinRead@BCD_Data(1), 
		 -> SecRead@BCD_Data(1), 
 Auto vars:     Size  Location     Type
  addr            1   19[COMRAM] unsigned char 
 Return value:  Size  Location     Type
                  1    wreg      void 
 Registers used:
		wreg, fsr2l, fsr2h, status,2, status,0, cstack
 Tracked objects:
		On entry : 
		On exit  : 
		Unchanged: 
 Data sizes:     COMRAM   BANK0   BANK1   BANK2   BANK3   BANK4   BANK5   BANK6   BANK7
      Params:         3       0       0       0       0       0       0       0       0
      Locals:         1       0       0       0       0       0       0       0       0
      Temps:          0       0       0       0       0       0       0       0       0
      Totals:         4       0       0       0       0       0       0       0       0
Total ram usage:        4 bytes
 Hardware stack levels used:    1
 Hardware stack levels required when called:    4
 This function calls:
		_I2C_Read
		_I2C_RepStart
		_I2C_Start
		_I2C_Stop
		_I2C_Write
 This function is called by:
		_SecRead
		_MinRead
		_HourRead
		_WeekRead
		_DateRead
		_MonthRead
		_YearRead
		_TemperureRead
 This function uses a non-reentrant model


 *************** function _I2C_RepStart *****************
 Defined at:
		line 28 in file "I2C.c"
 Parameters:    Size  Location     Type
		None
 Auto vars:     Size  Location     Type
		None
 Return value:  Size  Location     Type
                  1    wreg      void 
 Registers used:
		wreg, status,2, status,0, cstack
 Tracked objects:
		On entry : 
		On exit  : 
		Unchanged: 
 Data sizes:     COMRAM   BANK0   BANK1   BANK2   BANK3   BANK4   BANK5   BANK6   BANK7
      Params:         0       0       0       0       0       0       0       0       0
      Locals:         0       0       0       0       0       0       0       0       0
      Temps:          0       0       0       0       0       0       0       0       0
      Totals:         0       0       0       0       0       0       0       0       0
Total ram usage:        0 bytes
 Hardware stack levels used:    1
 Hardware stack levels required when called:    3
 This function calls:
		_I2C_is_idle
 This function is called by:
		_I2C_Mem_Read
 This function uses a non-reentrant model


 *************** function _I2C_Read *****************
 Defined at:
		line 45 in file "I2C.c"
 Parameters:    Size  Location     Type
  GenerateAck     1    wreg     _Bool 
 Auto vars:     Size  Location     Type
  GenerateAck     1   14[COMRAM] _Bool 
  data            1   15[COMRAM] unsigned char 
 Return value:  Size  Location     Type
                  1    wreg      unsigned char 
 Registers used:
		wreg, status,2, status,0, cstack
 Tracked objects:
		On entry : 
		On exit  : 
		Unchanged: 
 Data sizes:     COMRAM   BANK0   BANK1   BANK2   BANK3   BANK4   BANK5   BANK6   BANK7
      Params:         0       0       0       0       0       0       0       0       0
      Locals:         2       0       0       0       0       0       0       0       0
      Temps:          0       0       0       0       0       0       0       0       0
      Totals:         2       0       0       0       0       0       0       0       0
Total ram usage:        2 bytes
 Hardware stack levels used:    1
 Hardware stack levels required when called:    3
 This function calls:
		_I2C_is_idle
 This function is called by:
		_I2C_Mem_Read
		_I2C_Master_Receive
 This function uses a non-reentrant model


 *************** function _ShowWeek *****************
 Defined at:
		line 202 in file "main.c"
 Parameters:    Size  Location     Type
		None
 Auto vars:     Size  Location     Type
		None
 Return value:  Size  Location     Type
                  1    wreg      void 
 Registers used:
		wreg, status,2, status,0, cstack
 Tracked objects:
		On entry : 
		On exit  : 
		Unchanged: 
 Data sizes:     COMRAM   BANK0   BANK1   BANK2   BANK3   BANK4   BANK5   BANK6   BANK7
      Params:         0       0       0       0       0       0       0       0       0
      Locals:         0       0       0       0       0       0       0       0       0
      Temps:          0       0       0       0       0       0       0       0       0
      Totals:         0       0       0       0       0       0       0       0       0
Total ram usage:        0 bytes
 Hardware stack levels used:    1
 Hardware stack levels required when called:    3
 This function calls:
		___awmod
 This function is called by:
		_main
 This function uses a non-reentrant model


 *************** function _ShowTime *****************
 Defined at:
		line 224 in file "main.c"
 Parameters:    Size  Location     Type
		None
 Auto vars:     Size  Location     Type
		None
 Return value:  Size  Location     Type
                  1    wreg      void 
 Registers used:
		wreg, status,2, status,0, cstack
 Tracked objects:
		On entry : 
		On exit  : 
		Unchanged: 
 Data sizes:     COMRAM   BANK0   BANK1   BANK2   BANK3   BANK4   BANK5   BANK6   BANK7
      Params:         0       0       0       0       0       0       0       0       0
      Locals:         0       0       0       0       0       0       0       0       0
      Temps:          0       0       0       0       0       0       0       0       0
      Totals:         0       0       0       0       0       0       0       0       0
Total ram usage:        0 bytes
 Hardware stack levels used:    1
 Hardware stack levels required when called:    3
 This function calls:
		___awdiv
		___awmod
 This function is called by:
		_main
 This function uses a non-reentrant model


 *************** function _ShowDate *****************
 Defined at:
		line 213 in file "main.c"
 Parameters:    Size  Location     Type
		None
 Auto vars:     Size  Location     Type
		None
 Return value:  Size  Location     Type
                  1    wreg      void 
 Registers used:
		wreg, status,2, status,0, cstack
 Tracked objects:
		On entry : 
		On exit  : 
		Unchanged: 
 Data sizes:     COMRAM   BANK0   BANK1   BANK2   BANK3   BANK4   BANK5   BANK6   BANK7
      Params:         0       0       0       0       0       0       0       0       0
      Locals:         0       0       0       0       0       0       0       0       0
      Temps:          0       0       0       0       0       0       0       0       0
      Totals:         0       0       0       0       0       0       0       0       0
Total ram usage:        0 bytes
 Hardware stack levels used:    1
 Hardware stack levels required when called:    3
 This function calls:
		___awdiv
		___awmod
 This function is called by:
		_main
 This function uses a non-reentrant model


 *************** function _SetRTC *****************
 Defined at:
		line 103 in file "main.c"
 Parameters:    Size  Location     Type
		None
 Auto vars:     Size  Location     Type
  cnt             1   44[COMRAM] unsigned char 
 Return value:  Size  Location     Type
                  1    wreg      void 
 Registers used:
		wreg, fsr1l, fsr1h, fsr2l, fsr2h, status,2, status,0, cstack
 Tracked objects:
		On entry : 
		On exit  : 
		Unchanged: 
 Data sizes:     COMRAM   BANK0   BANK1   BANK2   BANK3   BANK4   BANK5   BANK6   BANK7
      Params:         0       0       0       0       0       0       0       0       0
      Locals:        19       0       0       0       0       0       0       0       0
      Temps:          2       0       0       0       0       0       0       0       0
      Totals:        21       0       0       0       0       0       0       0       0
Total ram usage:       21 bytes
 Hardware stack levels used:    1
 Hardware stack levels required when called:    7
 This function calls:
		_GetRisingEdge_SW1
		_GetRisingEdge_SW2
		_TimeSet
		___awdiv
		___awmod
 This function is called by:
		_main
 This function uses a non-reentrant model


 *************** function _TimeSet *****************
 Defined at:
		line 131 in file "DS3231.c"
 Parameters:    Size  Location     Type
  time            2   22[COMRAM] PTR struct Time
		 -> Set(7), 
 Auto vars:     Size  Location     Type
		None
 Return value:  Size  Location     Type
                  1    wreg      void 
 Registers used:
		wreg, fsr2l, fsr2h, status,2, status,0, cstack
 Tracked objects:
		On entry : 
		On exit  : 
		Unchanged: 
 Data sizes:     COMRAM   BANK0   BANK1   BANK2   BANK3   BANK4   BANK5   BANK6   BANK7
      Params:         2       0       0       0       0       0       0       0       0
      Locals:         0       0       0       0       0       0       0       0       0
      Temps:          0       0       0       0       0       0       0       0       0
      Totals:         2       0       0       0       0       0       0       0       0
Total ram usage:        2 bytes
 Hardware stack levels used:    1
 Hardware stack levels required when called:    6
 This function calls:
		_SetDate
		_SetHour
		_SetMin
		_SetMonth
		_SetSec
		_SetYear
 This function is called by:
		_SetRTC
 This function uses a non-reentrant model


 *************** function _SetYear *****************
 Defined at:
		line 57 in file "DS3231.c"
 Parameters:    Size  Location     Type
  data            1    wreg     unsigned char 
 Auto vars:     Size  Location     Type
  data            1   21[COMRAM] unsigned char 
  BCD_Data        1   20[COMRAM] unsigned char 
 Return value:  Size  Location     Type
                  1    wreg      void 
 Registers used:
		wreg, status,2, status,0, cstack
 Tracked objects:
		On entry : 
		On exit  : 
		Unchanged: 
 Data sizes:     COMRAM   BANK0   BANK1   BANK2   BANK3   BANK4   BANK5   BANK6   BANK7
      Params:         0       0       0       0       0       0       0       0       0
      Locals:         2       0       0       0       0       0       0       0       0
      Temps:          2       0       0       0       0       0       0       0       0
      Totals:         4       0       0       0       0       0       0       0       0
Total ram usage:        4 bytes
 Hardware stack levels used:    1
 Hardware stack levels required when called:    5
 This function calls:
		_I2C_Mem_Transmit
		___awdiv
		___awmod
 This function is called by:
		_TimeSet
 This function uses a non-reentrant model


 *************** function _SetSec *****************
 Defined at:
		line 9 in file "DS3231.c"
 Parameters:    Size  Location     Type
  data            1    wreg     unsigned char 
 Auto vars:     Size  Location     Type
  data            1   21[COMRAM] unsigned char 
  BCD_Data        1   20[COMRAM] unsigned char 
 Return value:  Size  Location     Type
                  1    wreg      void 
 Registers used:
		wreg, status,2, status,0, cstack
 Tracked objects:
		On entry : 
		On exit  : 
		Unchanged: 
 Data sizes:     COMRAM   BANK0   BANK1   BANK2   BANK3   BANK4   BANK5   BANK6   BANK7
      Params:         0       0       0       0       0       0       0       0       0
      Locals:         2       0       0       0       0       0       0       0       0
      Temps:          2       0       0       0       0       0       0       0       0
      Totals:         4       0       0       0       0       0       0       0       0
Total ram usage:        4 bytes
 Hardware stack levels used:    1
 Hardware stack levels required when called:    5
 This function calls:
		_I2C_Mem_Transmit
		___awdiv
		___awmod
 This function is called by:
		_TimeSet
 This function uses a non-reentrant model


 *************** function _SetMonth *****************
 Defined at:
		line 49 in file "DS3231.c"
 Parameters:    Size  Location     Type
  data            1    wreg     unsigned char 
 Auto vars:     Size  Location     Type
  data            1   21[COMRAM] unsigned char 
  BCD_Data        1   20[COMRAM] unsigned char 
 Return value:  Size  Location     Type
                  1    wreg      void 
 Registers used:
		wreg, status,2, status,0, cstack
 Tracked objects:
		On entry : 
		On exit  : 
		Unchanged: 
 Data sizes:     COMRAM   BANK0   BANK1   BANK2   BANK3   BANK4   BANK5   BANK6   BANK7
      Params:         0       0       0       0       0       0       0       0       0
      Locals:         2       0       0       0       0       0       0       0       0
      Temps:          2       0       0       0       0       0       0       0       0
      Totals:         4       0       0       0       0       0       0       0       0
Total ram usage:        4 bytes
 Hardware stack levels used:    1
 Hardware stack levels required when called:    5
 This function calls:
		_I2C_Mem_Transmit
		___awdiv
		___awmod
 This function is called by:
		_TimeSet
 This function uses a non-reentrant model


 *************** function _SetMin *****************
 Defined at:
		line 17 in file "DS3231.c"
 Parameters:    Size  Location     Type
  data            1    wreg     unsigned char 
 Auto vars:     Size  Location     Type
  data            1   21[COMRAM] unsigned char 
  BCD_Data        1   20[COMRAM] unsigned char 
 Return value:  Size  Location     Type
                  1    wreg      void 
 Registers used:
		wreg, status,2, status,0, cstack
 Tracked objects:
		On entry : 
		On exit  : 
		Unchanged: 
 Data sizes:     COMRAM   BANK0   BANK1   BANK2   BANK3   BANK4   BANK5   BANK6   BANK7
      Params:         0       0       0       0       0       0       0       0       0
      Locals:         2       0       0       0       0       0       0       0       0
      Temps:          2       0       0       0       0       0       0       0       0
      Totals:         4       0       0       0       0       0       0       0       0
Total ram usage:        4 bytes
 Hardware stack levels used:    1
 Hardware stack levels required when called:    5
 This function calls:
		_I2C_Mem_Transmit
		___awdiv
		___awmod
 This function is called by:
		_TimeSet
 This function uses a non-reentrant model


 *************** function _SetHour *****************
 Defined at:
		line 25 in file "DS3231.c"
 Parameters:    Size  Location     Type
  data            1    wreg     unsigned char 
 Auto vars:     Size  Location     Type
  data            1   21[COMRAM] unsigned char 
  BCD_Data        1   20[COMRAM] unsigned char 
 Return value:  Size  Location     Type
                  1    wreg      void 
 Registers used:
		wreg, status,2, status,0, cstack
 Tracked objects:
		On entry : 
		On exit  : 
		Unchanged: 
 Data sizes:     COMRAM   BANK0   BANK1   BANK2   BANK3   BANK4   BANK5   BANK6   BANK7
      Params:         0       0       0       0       0       0       0       0       0
      Locals:         2       0       0       0       0       0       0       0       0
      Temps:          2       0       0       0       0       0       0       0       0
      Totals:         4       0       0       0       0       0       0       0       0
Total ram usage:        4 bytes
 Hardware stack levels used:    1
 Hardware stack levels required when called:    5
 This function calls:
		_I2C_Mem_Transmit
		___awdiv
		___awmod
 This function is called by:
		_TimeSet
 This function uses a non-reentrant model


 *************** function _SetDate *****************
 Defined at:
		line 33 in file "DS3231.c"
 Parameters:    Size  Location     Type
  data            1    wreg     unsigned char 
 Auto vars:     Size  Location     Type
  data            1   21[COMRAM] unsigned char 
  BCD_Data        1   20[COMRAM] unsigned char 
 Return value:  Size  Location     Type
                  1    wreg      void 
 Registers used:
		wreg, status,2, status,0, cstack
 Tracked objects:
		On entry : 
		On exit  : 
		Unchanged: 
 Data sizes:     COMRAM   BANK0   BANK1   BANK2   BANK3   BANK4   BANK5   BANK6   BANK7
      Params:         0       0       0       0       0       0       0       0       0
      Locals:         2       0       0       0       0       0       0       0       0
      Temps:          2       0       0       0       0       0       0       0       0
      Totals:         4       0       0       0       0       0       0       0       0
Total ram usage:        4 bytes
 Hardware stack levels used:    1
 Hardware stack levels required when called:    5
 This function calls:
		_I2C_Mem_Transmit
		___awdiv
		___awmod
 This function is called by:
		_TimeSet
 This function uses a non-reentrant model


 *************** function ___awmod *****************
 Defined at:
		line 7 in file "C:\Program Files (x86)\Microchip\xc8\v2.05\pic\sources\c99\common\awmod.c"
 Parameters:    Size  Location     Type
  dividend        2   10[COMRAM] int 
  divisor         2   12[COMRAM] int 
 Auto vars:     Size  Location     Type
  sign            1   15[COMRAM] unsigned char 
  counter         1   14[COMRAM] unsigned char 
 Return value:  Size  Location     Type
                  2   10[COMRAM] int 
 Registers used:
		wreg, status,2, status,0
 Tracked objects:
		On entry : 
		On exit  : 
		Unchanged: 
 Data sizes:     COMRAM   BANK0   BANK1   BANK2   BANK3   BANK4   BANK5   BANK6   BANK7
      Params:         4       0       0       0       0       0       0       0       0
      Locals:         2       0       0       0       0       0       0       0       0
      Temps:          0       0       0       0       0       0       0       0       0
      Totals:         6       0       0       0       0       0       0       0       0
Total ram usage:        6 bytes
 Hardware stack levels used:    1
 Hardware stack levels required when called:    2
 This function calls:
		Nothing
 This function is called by:
		_SetRTC
		_ShowWeek
		_ShowDate
		_ShowTime
		_SetSec
		_SetMin
		_SetHour
		_SetDate
		_SetMonth
		_SetYear
 This function uses a non-reentrant model


 *************** function ___awdiv *****************
 Defined at:
		line 7 in file "C:\Program Files (x86)\Microchip\xc8\v2.05\pic\sources\c99\common\awdiv.c"
 Parameters:    Size  Location     Type
  dividend        2   10[COMRAM] int 
  divisor         2   12[COMRAM] int 
 Auto vars:     Size  Location     Type
  quotient        2   16[COMRAM] int 
  sign            1   15[COMRAM] unsigned char 
  counter         1   14[COMRAM] unsigned char 
 Return value:  Size  Location     Type
                  2   10[COMRAM] int 
 Registers used:
		wreg, status,2, status,0
 Tracked objects:
		On entry : 
		On exit  : 
		Unchanged: 
 Data sizes:     COMRAM   BANK0   BANK1   BANK2   BANK3   BANK4   BANK5   BANK6   BANK7
      Params:         4       0       0       0       0       0       0       0       0
      Locals:         4       0       0       0       0       0       0       0       0
      Temps:          0       0       0       0       0       0       0       0       0
      Totals:         8       0       0       0       0       0       0       0       0
Total ram usage:        8 bytes
 Hardware stack levels used:    1
 Hardware stack levels required when called:    2
 This function calls:
		Nothing
 This function is called by:
		_SetRTC
		_ShowDate
		_ShowTime
		_SetSec
		_SetMin
		_SetHour
		_SetDate
		_SetMonth
		_SetYear
 This function uses a non-reentrant model


 *************** function _I2C_Mem_Transmit *****************
 Defined at:
		line 55 in file "I2C.c"
 Parameters:    Size  Location     Type
  addr            1    wreg     unsigned char 
  MemAddress      1   15[COMRAM] unsigned char 
  data            1   16[COMRAM] unsigned char 
 Auto vars:     Size  Location     Type
  addr            1   17[COMRAM] unsigned char 
 Return value:  Size  Location     Type
                  1    wreg      void 
 Registers used:
		wreg, status,2, status,0, cstack
 Tracked objects:
		On entry : 
		On exit  : 
		Unchanged: 
 Data sizes:     COMRAM   BANK0   BANK1   BANK2   BANK3   BANK4   BANK5   BANK6   BANK7
      Params:         2       0       0       0       0       0       0       0       0
      Locals:         1       0       0       0       0       0       0       0       0
      Temps:          0       0       0       0       0       0       0       0       0
      Totals:         3       0       0       0       0       0       0       0       0
Total ram usage:        3 bytes
 Hardware stack levels used:    1
 Hardware stack levels required when called:    4
 This function calls:
		_I2C_Start
		_I2C_Stop
		_I2C_Write
 This function is called by:
		_SetSec
		_SetMin
		_SetHour
		_SetDate
		_SetMonth
		_SetYear
		_SetWeek
 This function uses a non-reentrant model


 *************** function _I2C_Write *****************
 Defined at:
		line 38 in file "I2C.c"
 Parameters:    Size  Location     Type
  data            1    wreg     unsigned char 
 Auto vars:     Size  Location     Type
  data            1   14[COMRAM] unsigned char 
 Return value:  Size  Location     Type
                  1    wreg      void 
 Registers used:
		wreg, status,2, status,0, cstack
 Tracked objects:
		On entry : 
		On exit  : 
		Unchanged: 
 Data sizes:     COMRAM   BANK0   BANK1   BANK2   BANK3   BANK4   BANK5   BANK6   BANK7
      Params:         0       0       0       0       0       0       0       0       0
      Locals:         1       0       0       0       0       0       0       0       0
      Temps:          0       0       0       0       0       0       0       0       0
      Totals:         1       0       0       0       0       0       0       0       0
Total ram usage:        1 bytes
 Hardware stack levels used:    1
 Hardware stack levels required when called:    3
 This function calls:
		_I2C_is_idle
 This function is called by:
		_I2C_Mem_Transmit
		_I2C_Mem_Read
		_I2C_Master_Receive
		_I2C_Master_Transmit
 This function uses a non-reentrant model


 *************** function _I2C_Stop *****************
 Defined at:
		line 33 in file "I2C.c"
 Parameters:    Size  Location     Type
		None
 Auto vars:     Size  Location     Type
		None
 Return value:  Size  Location     Type
                  1    wreg      void 
 Registers used:
		wreg, status,2, status,0, cstack
 Tracked objects:
		On entry : 
		On exit  : 
		Unchanged: 
 Data sizes:     COMRAM   BANK0   BANK1   BANK2   BANK3   BANK4   BANK5   BANK6   BANK7
      Params:         0       0       0       0       0       0       0       0       0
      Locals:         0       0       0       0       0       0       0       0       0
      Temps:          0       0       0       0       0       0       0       0       0
      Totals:         0       0       0       0       0       0       0       0       0
Total ram usage:        0 bytes
 Hardware stack levels used:    1
 Hardware stack levels required when called:    3
 This function calls:
		_I2C_is_idle
 This function is called by:
		_I2C_Mem_Transmit
		_I2C_Mem_Read
		_I2C_Master_Receive
		_I2C_Master_Transmit
 This function uses a non-reentrant model


 *************** function _I2C_Start *****************
 Defined at:
		line 23 in file "I2C.c"
 Parameters:    Size  Location     Type
		None
 Auto vars:     Size  Location     Type
		None
 Return value:  Size  Location     Type
                  1    wreg      void 
 Registers used:
		wreg, status,2, status,0, cstack
 Tracked objects:
		On entry : 
		On exit  : 
		Unchanged: 
 Data sizes:     COMRAM   BANK0   BANK1   BANK2   BANK3   BANK4   BANK5   BANK6   BANK7
      Params:         0       0       0       0       0       0       0       0       0
      Locals:         0       0       0       0       0       0       0       0       0
      Temps:          0       0       0       0       0       0       0       0       0
      Totals:         0       0       0       0       0       0       0       0       0
Total ram usage:        0 bytes
 Hardware stack levels used:    1
 Hardware stack levels required when called:    3
 This function calls:
		_I2C_is_idle
 This function is called by:
		_I2C_Mem_Transmit
		_I2C_Mem_Read
		_I2C_Master_Receive
		_I2C_Master_Transmit
 This function uses a non-reentrant model


 *************** function _I2C_is_idle *****************
 Defined at:
		line 13 in file "I2C.c"
 Parameters:    Size  Location     Type
		None
 Auto vars:     Size  Location     Type
  TimeOut         2   12[COMRAM] unsigned short 
 Return value:  Size  Location     Type
                  1    wreg      void 
 Registers used:
		wreg, status,2, status,0
 Tracked objects:
		On entry : 
		On exit  : 
		Unchanged: 
 Data sizes:     COMRAM   BANK0   BANK1   BANK2   BANK3   BANK4   BANK5   BANK6   BANK7
      Params:         0       0       0       0       0       0       0       0       0
      Locals:         2       0       0       0       0       0       0       0       0
      Temps:          2       0       0       0       0       0       0       0       0
      Totals:         4       0       0       0       0       0       0       0       0
Total ram usage:        4 bytes
 Hardware stack levels used:    1
 Hardware stack levels required when called:    2
 This function calls:
		Nothing
 This function is called by:
		_I2C_Start
		_I2C_RepStart
		_I2C_Stop
		_I2C_Write
		_I2C_Read
 This function uses a non-reentrant model


 *************** function _GetRisingEdge_SW2 *****************
 Defined at:
		line 237 in file "main.c"
 Parameters:    Size  Location     Type
		None
 Auto vars:     Size  Location     Type
		None
 Return value:  Size  Location     Type
                  1    wreg      _Bool 
 Registers used:
		wreg, status,2
 Tracked objects:
		On entry : 
		On exit  : 
		Unchanged: 
 Data sizes:     COMRAM   BANK0   BANK1   BANK2   BANK3   BANK4   BANK5   BANK6   BANK7
      Params:         0       0       0       0       0       0       0       0       0
      Locals:         0       0       0       0       0       0       0       0       0
      Temps:          2       0       0       0       0       0       0       0       0
      Totals:         2       0       0       0       0       0       0       0       0
Total ram usage:        2 bytes
 Hardware stack levels used:    1
 Hardware stack levels required when called:    2
 This function calls:
		Nothing
 This function is called by:
		_main
		_SetRTC
 This function uses a non-reentrant model


 *************** function _SetBrightness *****************
 Defined at:
		line 84 in file "main.c"
 Parameters:    Size  Location     Type
		None
 Auto vars:     Size  Location     Type
		None
 Return value:  Size  Location     Type
                  1    wreg      void 
 Registers used:
		wreg, status,2, status,0, cstack
 Tracked objects:
		On entry : 
		On exit  : 
		Unchanged: 
 Data sizes:     COMRAM   BANK0   BANK1   BANK2   BANK3   BANK4   BANK5   BANK6   BANK7
      Params:         0       0       0       0       0       0       0       0       0
      Locals:         0       0       0       0       0       0       0       0       0
      Temps:          2       0       0       0       0       0       0       0       0
      Totals:         2       0       0       0       0       0       0       0       0
Total ram usage:        2 bytes
 Hardware stack levels used:    1
 Hardware stack levels required when called:    3
 This function calls:
		_GetRisingEdge_SW1
		___lwdiv
		___lwmod
 This function is called by:
		_main
 This function uses a non-reentrant model


 *************** function ___lwmod *****************
 Defined at:
		line 7 in file "C:\Program Files (x86)\Microchip\xc8\v2.05\pic\sources\c99\common\lwmod.c"
 Parameters:    Size  Location     Type
  dividend        2   10[COMRAM] unsigned int 
  divisor         2   12[COMRAM] unsigned int 
 Auto vars:     Size  Location     Type
  counter         1   14[COMRAM] unsigned char 
 Return value:  Size  Location     Type
                  2   10[COMRAM] unsigned int 
 Registers used:
		wreg, status,2, status,0
 Tracked objects:
		On entry : 
		On exit  : 
		Unchanged: 
 Data sizes:     COMRAM   BANK0   BANK1   BANK2   BANK3   BANK4   BANK5   BANK6   BANK7
      Params:         4       0       0       0       0       0       0       0       0
      Locals:         1       0       0       0       0       0       0       0       0
      Temps:          0       0       0       0       0       0       0       0       0
      Totals:         5       0       0       0       0       0       0       0       0
Total ram usage:        5 bytes
 Hardware stack levels used:    1
 Hardware stack levels required when called:    2
 This function calls:
		Nothing
 This function is called by:
		_SetBrightness
 This function uses a non-reentrant model


 *************** function ___lwdiv *****************
 Defined at:
		line 7 in file "C:\Program Files (x86)\Microchip\xc8\v2.05\pic\sources\c99\common\lwdiv.c"
 Parameters:    Size  Location     Type
  dividend        2   10[COMRAM] unsigned int 
  divisor         2   12[COMRAM] unsigned int 
 Auto vars:     Size  Location     Type
  quotient        2   14[COMRAM] unsigned int 
  counter         1   16[COMRAM] unsigned char 
 Return value:  Size  Location     Type
                  2   10[COMRAM] unsigned int 
 Registers used:
		wreg, status,2, status,0
 Tracked objects:
		On entry : 
		On exit  : 
		Unchanged: 
 Data sizes:     COMRAM   BANK0   BANK1   BANK2   BANK3   BANK4   BANK5   BANK6   BANK7
      Params:         4       0       0       0       0       0       0       0       0
      Locals:         3       0       0       0       0       0       0       0       0
      Temps:          0       0       0       0       0       0       0       0       0
      Totals:         7       0       0       0       0       0       0       0       0
Total ram usage:        7 bytes
 Hardware stack levels used:    1
 Hardware stack levels required when called:    2
 This function calls:
		Nothing
 This function is called by:
		_SetBrightness
 This function uses a non-reentrant model


 *************** function _GetRisingEdge_SW1 *****************
 Defined at:
		line 250 in file "main.c"
 Parameters:    Size  Location     Type
		None
 Auto vars:     Size  Location     Type
		None
 Return value:  Size  Location     Type
                  1    wreg      _Bool 
 Registers used:
		wreg, status,2
 Tracked objects:
		On entry : 
		On exit  : 
		Unchanged: 
 Data sizes:     COMRAM   BANK0   BANK1   BANK2   BANK3   BANK4   BANK5   BANK6   BANK7
      Params:         0       0       0       0       0       0       0       0       0
      Locals:         0       0       0       0       0       0       0       0       0
      Temps:          2       0       0       0       0       0       0       0       0
      Totals:         2       0       0       0       0       0       0       0       0
Total ram usage:        2 bytes
 Hardware stack levels used:    1
 Hardware stack levels required when called:    2
 This function calls:
		Nothing
 This function is called by:
		_main
		_SetBrightness
		_SetRTC
 This function uses a non-reentrant model


 *************** function _Interrupt_Init *****************
 Defined at:
		line 295 in file "main.c"
 Parameters:    Size  Location     Type
		None
 Auto vars:     Size  Location     Type
		None
 Return value:  Size  Location     Type
                  1    wreg      void 
 Registers used:
		None
 Tracked objects:
		On entry : 
		On exit  : 
		Unchanged: 
 Data sizes:     COMRAM   BANK0   BANK1   BANK2   BANK3   BANK4   BANK5   BANK6   BANK7
      Params:         0       0       0       0       0       0       0       0       0
      Locals:         0       0       0       0       0       0       0       0       0
      Temps:          0       0       0       0       0       0       0       0       0
      Totals:         0       0       0       0       0       0       0       0       0
Total ram usage:        0 bytes
 Hardware stack levels used:    1
 Hardware stack levels required when called:    2
 This function calls:
		Nothing
 This function is called by:
		_main
 This function uses a non-reentrant model


 *************** function _DS3231_Init *****************
 Defined at:
		line 5 in file "DS3231.c"
 Parameters:    Size  Location     Type
		None
 Auto vars:     Size  Location     Type
		None
 Return value:  Size  Location     Type
                  1    wreg      void 
 Registers used:
		wreg, status,2, cstack
 Tracked objects:
		On entry : 
		On exit  : 
		Unchanged: 
 Data sizes:     COMRAM   BANK0   BANK1   BANK2   BANK3   BANK4   BANK5   BANK6   BANK7
      Params:         0       0       0       0       0       0       0       0       0
      Locals:         0       0       0       0       0       0       0       0       0
      Temps:          0       0       0       0       0       0       0       0       0
      Totals:         0       0       0       0       0       0       0       0       0
Total ram usage:        0 bytes
 Hardware stack levels used:    1
 Hardware stack levels required when called:    3
 This function calls:
		_I2C_Init
 This function is called by:
		_main
 This function uses a non-reentrant model


 *************** function _I2C_Init *****************
 Defined at:
		line 3 in file "I2C.c"
 Parameters:    Size  Location     Type
		None
 Auto vars:     Size  Location     Type
		None
 Return value:  Size  Location     Type
                  1    wreg      void 
 Registers used:
		wreg, status,2
 Tracked objects:
		On entry : 
		On exit  : 
		Unchanged: 
 Data sizes:     COMRAM   BANK0   BANK1   BANK2   BANK3   BANK4   BANK5   BANK6   BANK7
      Params:         0       0       0       0       0       0       0       0       0
      Locals:         0       0       0       0       0       0       0       0       0
      Temps:          0       0       0       0       0       0       0       0       0
      Totals:         0       0       0       0       0       0       0       0       0
Total ram usage:        0 bytes
 Hardware stack levels used:    1
 Hardware stack levels required when called:    2
 This function calls:
		Nothing
 This function is called by:
		_DS3231_Init
 This function uses a non-reentrant model


 *************** function _ISR *****************
 Defined at:
		line 30 in file "main.c"
 Parameters:    Size  Location     Type
		None
 Auto vars:     Size  Location     Type
		None
 Return value:  Size  Location     Type
                  1    wreg      void 
 Registers used:
		wreg, fsr2l, fsr2h, status,2, status,0, prodl, prodh, cstack
 Tracked objects:
		On entry : 
		On exit  : 
		Unchanged: 
 Data sizes:     COMRAM   BANK0   BANK1   BANK2   BANK3   BANK4   BANK5   BANK6   BANK7
      Params:         0       0       0       0       0       0       0       0       0
      Locals:         0       0       0       0       0       0       0       0       0
      Temps:          4       0       0       0       0       0       0       0       0
      Totals:         4       0       0       0       0       0       0       0       0
Total ram usage:        4 bytes
 Hardware stack levels used:    1
 Hardware stack levels required when called:    1
 This function calls:
		_Display_ISR
 This function is called by:
		Interrupt level 2
 This function uses a non-reentrant model


 *************** function _Display_ISR *****************
 Defined at:
		line 263 in file "main.c"
 Parameters:    Size  Location     Type
		None
 Auto vars:     Size  Location     Type
		None
 Return value:  Size  Location     Type
                  1    wreg      void 
 Registers used:
		wreg, fsr2l, fsr2h, status,2, status,0, prodl, prodh
 Tracked objects:
		On entry : 
		On exit  : 
		Unchanged: 
 Data sizes:     COMRAM   BANK0   BANK1   BANK2   BANK3   BANK4   BANK5   BANK6   BANK7
      Params:         0       0       0       0       0       0       0       0       0
      Locals:         2       0       0       0       0       0       0       0       0
      Temps:          4       0       0       0       0       0       0       0       0
      Totals:         6       0       0       0       0       0       0       0       0
Total ram usage:        6 bytes
 Hardware stack levels used:    1
 This function calls:
		Nothing
 This function is called by:
		_ISR
 This function uses a non-reentrant model



MODULE INFORMATION

Module		Function		Class		Link	Load	Size
C:\Program Files (x86)\Microchip\xc8\v2.05\pic\sources\c99\common\lwmod.c
		___lwmod       		CODE           	0C20	0000	67

C:\Program Files (x86)\Microchip\xc8\v2.05\pic\sources\c99\common\lwmod.c estimated size: 67

C:\Program Files (x86)\Microchip\xc8\v2.05\pic\sources\c99\common\awmod.c
		___awmod       		CODE           	0814	0000	113

C:\Program Files (x86)\Microchip\xc8\v2.05\pic\sources\c99\common\awmod.c estimated size: 113

I2C.c
		_I2C_Mem_Read  		CODE           	0D0A	0000	55
		_I2C_Mem_Transmit		CODE           	0E8E	0000	33
		_I2C_Write     		CODE           	0F16	0000	21
		_I2C_Stop      		CODE           	0F5A	0000	9
		_I2C_Read      		CODE           	0EAE	0000	31
		_I2C_Init      		CODE           	0EFE	0000	25
		_I2C_Start     		CODE           	0F62	0000	9
		_I2C_RepStart  		CODE           	0F52	0000	9
		_I2C_is_idle   		CODE           	0BDA	0000	71

I2C.c estimated size: 263

C:\Program Files (x86)\Microchip\xc8\v2.05\pic\sources\c99\common\lwdiv.c
		___lwdiv       		CODE           	0A56	0000	83

C:\Program Files (x86)\Microchip\xc8\v2.05\pic\sources\c99\common\lwdiv.c estimated size: 83

C:\Program Files (x86)\Microchip\xc8\v2.05\pic\sources\c99\common\awdiv.c
		___awdiv       		CODE           	0718	0000	133

C:\Program Files (x86)\Microchip\xc8\v2.05\pic\sources\c99\common\awdiv.c estimated size: 133

shared
		__initialization		CODE           	0958	0000	77

shared estimated size: 77

DS3231.c
		_SetDate       		CODE           	0A04	0000	83
		_SetHour       		CODE           	0AA8	0000	79
		_DS3231_Init   		CODE           	0F6A	0000	7
		_DateRead      		CODE           	0DD4	0000	49
		_TimeRead      		CODE           	05F8	0000	149
		_WeekRead      		CODE           	0ECC	0000	27
		_TimeSet       		CODE           	08EE	0000	107
		_MinRead       		CODE           	0E60	0000	47
		_SetMonth      		CODE           	09B2	0000	83
		_MonthRead     		CODE           	0D74	0000	49
		_SetMin        		CODE           	0B8E	0000	77
		_HourRead      		CODE           	0DA4	0000	49
		_SetSec        		CODE           	0B42	0000	77
		_YearRead      		CODE           	0E04	0000	47
		_SetYear       		CODE           	0AF6	0000	77
		_SecRead       		CODE           	0E32	0000	47

DS3231.c estimated size: 1054

main.c
		_ShowDate      		CODE           	0884	0000	107
		_Timer0_Init   		CODE           	0EE6	0000	25
		_ISR           		CODE           	0008	0000	63
		_main          		CODE           	053A	0000	191
		_GetRisingEdge_SW1		CODE           	0C9A	0000	57
		_GetRisingEdge_SW2		CODE           	0C62	0000	57
		_ShowWeek      		CODE           	0D40	0000	53
		_Interrupt_Init		CODE           	0F2A	0000	15
		_SetBrightness 		CODE           	068C	0000	141
		_SetRTC        		CODE           	0012	0000	1023
		_ShowTime      		CODE           	079C	0000	121
		_Display_ISR   		CODE           	0410	0000	299

main.c estimated size: 2152

